target datalayout = "e-m:e-p270:32:32-p271:32:32-p272:64:64-i64:64-i128:128-f80:128-n8:16:32:64-S128"
target triple = "x86_64-pc-linux-gnu"

%"class.icu_77::RegexCompile" = type { ptr, ptr, ptr, ptr, i64, i8, i8, i8, i64, i64, i32, i32, %"struct.icu_77::RegexCompile::RegexPatternChar", [100 x i16], i32, i32, i32, i8, %"class.icu_77::UnicodeString", i64, %"class.icu_77::UVector32", i32, i32, i32, i32, %"class.icu_77::UStack", %"class.icu_77::UStack", i32, ptr }
%"struct.icu_77::RegexCompile::RegexPatternChar" = type { i32, i8 }
%"class.icu_77::UnicodeString" = type { %"class.icu_77::Replaceable", %"union.icu_77::UnicodeString::StackBufferOrFields" }
%"class.icu_77::Replaceable" = type { %"class.icu_77::UObject" }
%"class.icu_77::UObject" = type { ptr }
%"union.icu_77::UnicodeString::StackBufferOrFields" = type { %struct.anon.0, [32 x i8] }
%struct.anon.0 = type { i16, i32, i32, ptr }
%"class.icu_77::UVector32" = type { %"class.icu_77::UObject", i32, i32, i32, ptr }
%"class.icu_77::UStack" = type { %"class.icu_77::UVector" }
%"class.icu_77::UVector" = type { %"class.icu_77::UObject", i32, i32, ptr, ptr, ptr }
%"class.icu_77::RegexPattern" = type { %"class.icu_77::UObject", ptr, ptr, i32, ptr, %"class.icu_77::UnicodeString", ptr, ptr, i32, i32, i32, i32, ptr, i32, i32, i32, ptr, i32, ptr, i8, ptr }
%"class.icu_77::UVector64" = type { %"class.icu_77::UObject", i32, i32, i32, ptr }

; Function Attrs: inlinehint mustprogress nounwind uwtable
define internal noundef signext i8 @_ZL9U_FAILURE10UErrorCode(i32 noundef %0) #2 {
  %2 = alloca i32, align 4
  store i32 %0, ptr %2, align 4, !tbaa !15
  %3 = load i32, ptr %2, align 4, !tbaa !15
  %4 = icmp sgt i32 %3, 0
  %5 = zext i1 %4 to i8
  ret i8 %5
}

; Function Attrs: mustprogress uwtable
define noundef i32 @_ZN6icu_7712RegexCompile7buildOpEii(ptr noundef nonnull align 8 dereferenceable(512) %0, i32 noundef %1, i32 noundef %2) #1 align 2 {
  %4 = alloca i32, align 4
  %5 = alloca ptr, align 8
  %6 = alloca i32, align 4
  %7 = alloca i32, align 4
  store ptr %0, ptr %5, align 8, !tbaa !23
  store i32 %1, ptr %6, align 4, !tbaa !14
  store i32 %2, ptr %7, align 4, !tbaa !14
  %8 = load ptr, ptr %5, align 8
  %9 = getelementptr inbounds nuw %"class.icu_77::RegexCompile", ptr %8, i32 0, i32 1
  %10 = load ptr, ptr %9, align 8, !tbaa !29
  %11 = load i32, ptr %10, align 4, !tbaa !15
  %12 = call noundef signext i8 @_ZL9U_FAILURE10UErrorCode(i32 noundef %11)
  %13 = icmp ne i8 %12, 0
  br i1 %13, label %14, label %15

14:                                               ; preds = %3
  store i32 0, ptr %4, align 4
  br label %47

15:                                               ; preds = %3
  %16 = load i32, ptr %6, align 4, !tbaa !14
  %17 = icmp slt i32 %16, 0
  br i1 %17, label %21, label %18

18:                                               ; preds = %15
  %19 = load i32, ptr %6, align 4, !tbaa !14
  %20 = icmp sgt i32 %19, 255
  br i1 %20, label %21, label %22

21:                                               ; preds = %18, %15
  call void @abort() #15
  unreachable

22:                                               ; preds = %18
  %23 = load i32, ptr %7, align 4, !tbaa !14
  %24 = icmp sgt i32 %23, 16777215
  br i1 %24, label %25, label %26

25:                                               ; preds = %22
  call void @abort() #15
  unreachable

26:                                               ; preds = %22
  %27 = load i32, ptr %7, align 4, !tbaa !14
  %28 = icmp slt i32 %27, 0
  br i1 %28, label %29, label %42

29:                                               ; preds = %26
  %30 = load i32, ptr %6, align 4, !tbaa !14
  %31 = icmp eq i32 %30, 255
  br i1 %31, label %36, label %32

32:                                               ; preds = %29
  %33 = load i32, ptr %6, align 4, !tbaa !14
  %34 = icmp eq i32 %33, 0
  br i1 %34, label %36, label %35

35:                                               ; preds = %32
  call void @abort() #15
  unreachable

36:                                               ; preds = %32, %29
  %37 = load i32, ptr %7, align 4, !tbaa !14
  %38 = lshr i32 %37, 24
  %39 = icmp ne i32 %38, 255
  br i1 %39, label %40, label %41

40:                                               ; preds = %36
  call void @abort() #15
  unreachable

41:                                               ; preds = %36
  store i32 255, ptr %6, align 4, !tbaa !14
  br label %42

42:                                               ; preds = %41, %26
  %43 = load i32, ptr %6, align 4, !tbaa !14
  %44 = shl i32 %43, 24
  %45 = load i32, ptr %7, align 4, !tbaa !14
  %46 = or i32 %44, %45
  store i32 %46, ptr %4, align 4
  br label %47

47:                                               ; preds = %42, %14
  %48 = load i32, ptr %4, align 4
  ret i32 %48
}

; Function Attrs: inlinehint mustprogress nounwind uwtable
define linkonce_odr noundef i64 @_ZNK6icu_779UVector6410elementAtiEi(ptr noundef nonnull align 8 dereferenceable(32) %0, i32 noundef %1) #2 comdat align 2 {
  %3 = alloca ptr, align 8
  %4 = alloca i32, align 4
  store ptr %0, ptr %3, align 8, !tbaa !146
  store i32 %1, ptr %4, align 4, !tbaa !14
  %5 = load ptr, ptr %3, align 8
  %6 = load i32, ptr %4, align 4, !tbaa !14
  %7 = icmp sle i32 0, %6
  br i1 %7, label %8, label %20

8:                                                ; preds = %2
  %9 = load i32, ptr %4, align 4, !tbaa !14
  %10 = getelementptr inbounds nuw %"class.icu_77::UVector64", ptr %5, i32 0, i32 1
  %11 = load i32, ptr %10, align 8, !tbaa !147
  %12 = icmp slt i32 %9, %11
  br i1 %12, label %13, label %20

13:                                               ; preds = %8
  %14 = getelementptr inbounds nuw %"class.icu_77::UVector64", ptr %5, i32 0, i32 4
  %15 = load ptr, ptr %14, align 8, !tbaa !167
  %16 = load i32, ptr %4, align 4, !tbaa !14
  %17 = sext i32 %16 to i64
  %18 = getelementptr inbounds i64, ptr %15, i64 %17
  %19 = load i64, ptr %18, align 8, !tbaa !18
  br label %21

20:                                               ; preds = %8, %2
  br label %21

21:                                               ; preds = %20, %13
  %22 = phi i64 [ %19, %13 ], [ 0, %20 ]
  ret i64 %22
}

; Function Attrs: inlinehint mustprogress nounwind uwtable
define linkonce_odr noundef i32 @_ZNK6icu_779UVector644sizeEv(ptr noundef nonnull align 8 dereferenceable(32) %0) #2 comdat align 2 {
  %2 = alloca ptr, align 8
  store ptr %0, ptr %2, align 8, !tbaa !146
  %3 = load ptr, ptr %2, align 8
  %4 = getelementptr inbounds nuw %"class.icu_77::UVector64", ptr %3, i32 0, i32 1
  %5 = load i32, ptr %4, align 8, !tbaa !147
  ret i32 %5
}

; Function Attrs: mustprogress uwtable
define noundef i32 @_ZN6icu_7712RegexCompile11blockTopLocEa(ptr noundef nonnull align 8 dereferenceable(512) %0, i8 noundef signext %1) #1 align 2 {
  %3 = alloca ptr, align 8
  %4 = alloca i8, align 1
  %5 = alloca i32, align 4
  %6 = alloca i32, align 4
  %7 = alloca i32, align 4
  store ptr %0, ptr %3, align 8, !tbaa !23
  store i8 %1, ptr %4, align 1, !tbaa !66
  %8 = load ptr, ptr %3, align 8
  call void @llvm.lifetime.start.p0(i64 4, ptr %5) #13
  call void @_ZN6icu_7712RegexCompile11fixLiteralsEa(ptr noundef nonnull align 8 dereferenceable(512) %8, i8 noundef signext 1)
  %9 = getelementptr inbounds nuw %"class.icu_77::RegexCompile", ptr %8, i32 0, i32 2
  %10 = load ptr, ptr %9, align 8, !tbaa !41
  %11 = getelementptr inbounds nuw %"class.icu_77::RegexPattern", ptr %10, i32 0, i32 4
  %12 = load ptr, ptr %11, align 8, !tbaa !92
  %13 = call noundef i32 @_ZNK6icu_779UVector644sizeEv(ptr noundef nonnull align 8 dereferenceable(32) %12)
  %14 = getelementptr inbounds nuw %"class.icu_77::RegexCompile", ptr %8, i32 0, i32 22
  %15 = load i32, ptr %14, align 4, !tbaa !61
  %16 = icmp eq i32 %13, %15
  br i1 %16, label %17, label %20

17:                                               ; preds = %2
  %18 = getelementptr inbounds nuw %"class.icu_77::RegexCompile", ptr %8, i32 0, i32 21
  %19 = load i32, ptr %18, align 8, !tbaa !60
  store i32 %19, ptr %5, align 4, !tbaa !14
  br label %55

20:                                               ; preds = %2
  %21 = getelementptr inbounds nuw %"class.icu_77::RegexCompile", ptr %8, i32 0, i32 2
  %22 = load ptr, ptr %21, align 8, !tbaa !41
  %23 = getelementptr inbounds nuw %"class.icu_77::RegexPattern", ptr %22, i32 0, i32 4
  %24 = load ptr, ptr %23, align 8, !tbaa !92
  %25 = call noundef i32 @_ZNK6icu_779UVector644sizeEv(ptr noundef nonnull align 8 dereferenceable(32) %24)
  %26 = sub nsw i32 %25, 1
  store i32 %26, ptr %5, align 4, !tbaa !14
  call void @llvm.lifetime.start.p0(i64 4, ptr %6) #13
  %27 = getelementptr inbounds nuw %"class.icu_77::RegexCompile", ptr %8, i32 0, i32 2
  %28 = load ptr, ptr %27, align 8, !tbaa !41
  %29 = getelementptr inbounds nuw %"class.icu_77::RegexPattern", ptr %28, i32 0, i32 4
  %30 = load ptr, ptr %29, align 8, !tbaa !92
  %31 = load i32, ptr %5, align 4, !tbaa !14
  %32 = call noundef i64 @_ZNK6icu_779UVector6410elementAtiEi(ptr noundef nonnull align 8 dereferenceable(32) %30, i32 noundef %31)
  %33 = trunc i64 %32 to i32
  store i32 %33, ptr %6, align 4, !tbaa !14
  %34 = load i32, ptr %6, align 4, !tbaa !14
  %35 = lshr i32 %34, 24
  %36 = icmp eq i32 %35, 5
  br i1 %36, label %37, label %40

37:                                               ; preds = %20
  %38 = load i32, ptr %5, align 4, !tbaa !14
  %39 = add nsw i32 %38, -1
  store i32 %39, ptr %5, align 4, !tbaa !14
  br label %40

40:                                               ; preds = %37, %20
  %41 = load i8, ptr %4, align 1, !tbaa !66
  %42 = icmp ne i8 %41, 0
  br i1 %42, label %43, label %54

43:                                               ; preds = %40
  call void @llvm.lifetime.start.p0(i64 4, ptr %7) #13
  %44 = call noundef i32 @_ZN6icu_7712RegexCompile7buildOpEii(ptr noundef nonnull align 8 dereferenceable(512) %8, i32 noundef 7, i32 noundef 0)
  store i32 %44, ptr %7, align 4, !tbaa !14
  %45 = getelementptr inbounds nuw %"class.icu_77::RegexCompile", ptr %8, i32 0, i32 2
  %46 = load ptr, ptr %45, align 8, !tbaa !41
  %47 = getelementptr inbounds nuw %"class.icu_77::RegexPattern", ptr %46, i32 0, i32 4
  %48 = load ptr, ptr %47, align 8, !tbaa !92
  %49 = load i32, ptr %7, align 4, !tbaa !14
  %50 = sext i32 %49 to i64
  %51 = load i32, ptr %5, align 4, !tbaa !14
  %52 = getelementptr inbounds nuw %"class.icu_77::RegexCompile", ptr %8, i32 0, i32 1
  %53 = load ptr, ptr %52, align 8, !tbaa !29
  call void @_ZN6icu_779UVector6415insertElementAtEliR10UErrorCode(ptr noundef nonnull align 8 dereferenceable(32) %48, i64 noundef %50, i32 noundef %51, ptr noundef nonnull align 4 dereferenceable(4) %53)
  call void @llvm.lifetime.end.p0(i64 4, ptr %7) #13
  br label %54

54:                                               ; preds = %43, %40
  call void @llvm.lifetime.end.p0(i64 4, ptr %6) #13
  br label %55

55:                                               ; preds = %54, %17
  %56 = load i32, ptr %5, align 4, !tbaa !14
  call void @llvm.lifetime.end.p0(i64 4, ptr %5) #13
  ret i32 %56
}