; Function Attrs: mustprogress uwtable
define noundef i32 @_ZN6icu_7712RegexCompile11blockTopLocEa(ptr noundef nonnull align 8 dereferenceable(512) %0, i8 noundef signext %1) local_unnamed_addr #1 align 2 {
  tail call void @_ZN6icu_7712RegexCompile11fixLiteralsEa(ptr noundef nonnull align 8 dereferenceable(512) %0, i8 noundef signext 1)
  %3 = getelementptr inbounds nuw i8, ptr %0, i64 16
  %4 = load ptr, ptr %3, align 8, !tbaa !33
  %5 = getelementptr inbounds nuw i8, ptr %4, i64 32
  %6 = load ptr, ptr %5, align 8, !tbaa !79
  %7 = getelementptr inbounds nuw i8, ptr %6, i64 8
  %8 = load i32, ptr %7, align 8, !tbaa !80
  %9 = getelementptr inbounds nuw i8, ptr %0, i64 404
  %10 = load i32, ptr %9, align 4, !tbaa !53
  %11 = icmp eq i32 %8, %10
  br i1 %11, label %12, label %15

12:                                               ; preds = %2
  %13 = getelementptr inbounds nuw i8, ptr %0, i64 400
  %14 = load i32, ptr %13, align 8, !tbaa !52
  br label %30

15:                                               ; preds = %2
  %16 = add nsw i32 %8, -1
  %17 = icmp sgt i32 %8, 0
  br i1 %17, label %_ZNK6icu_779UVector6410elementAtiEi.exit, label %_ZNK6icu_779UVector6410elementAtiEi.exit.thread

_ZNK6icu_779UVector6410elementAtiEi.exit:         ; preds = %15
  %18 = getelementptr inbounds nuw i8, ptr %6, i64 24
  %19 = load ptr, ptr %18, align 8, !tbaa !115
  %20 = zext nneg i32 %16 to i64
  %21 = getelementptr inbounds nuw i64, ptr %19, i64 %20
  %22 = load i64, ptr %21, align 8, !tbaa !116
  %.fr11 = freeze i64 %22
  %23 = and i64 %.fr11, 4278190080
  %24 = icmp eq i64 %23, 83886080
  %25 = add nsw i32 %8, -2
  %spec.select = select i1 %24, i32 %25, i32 %16
  br label %_ZNK6icu_779UVector6410elementAtiEi.exit.thread

_ZNK6icu_779UVector6410elementAtiEi.exit.thread:  ; preds = %_ZNK6icu_779UVector6410elementAtiEi.exit, %15
  %26 = phi i32 [ %16, %15 ], [ %spec.select, %_ZNK6icu_779UVector6410elementAtiEi.exit ]
  %.not = icmp eq i8 %1, 0
  br i1 %.not, label %30, label %_ZN6icu_7712RegexCompile7buildOpEii.exit

_ZN6icu_7712RegexCompile7buildOpEii.exit:         ; preds = %_ZNK6icu_779UVector6410elementAtiEi.exit.thread
  %27 = getelementptr inbounds nuw i8, ptr %0, i64 8
  %28 = load ptr, ptr %27, align 8, !tbaa !18
  %29 = load i32, ptr %28, align 4, !tbaa !13
  %.inv = icmp sgt i32 %29, 0
  %spec.select8 = select i1 %.inv, i64 0, i64 117440512
  tail call void @_ZN6icu_779UVector6415insertElementAtEliR10UErrorCode(ptr noundef nonnull align 8 dereferenceable(32) %6, i64 noundef %spec.select8, i32 noundef %26, ptr noundef nonnull align 4 dereferenceable(4) %28)
  br label %30

30:                                               ; preds = %_ZNK6icu_779UVector6410elementAtiEi.exit.thread, %_ZN6icu_7712RegexCompile7buildOpEii.exit, %12
  %.0 = phi i32 [ %14, %12 ], [ %26, %_ZN6icu_7712RegexCompile7buildOpEii.exit ], [ %26, %_ZNK6icu_779UVector6410elementAtiEi.exit.thread ]
  ret i32 %.0
}